target datalayout = "e-m:e-p270:32:32-p271:32:32-p272:64:64-i64:64-i128:128-f80:128-n8:16:32:64-S128"
target triple = "x86_64-pc-linux-gnu"

%struct._stmt = type { i32, %union.anon.11, i32, i32, i32, i32 }
%union.anon.11 = type { %struct.anon.12 }
%struct.anon.12 = type { ptr, ptr, ptr, ptr, ptr, ptr, ptr }

; Function Attrs: nounwind uwtable
define hidden ptr @_PyAST_Continue(i32 noundef %0, i32 noundef %1, i32 noundef %2, i32 noundef %3, ptr noundef %4) #0 {
  %6 = alloca ptr, align 8
  %7 = alloca i32, align 4
  %8 = alloca i32, align 4
  %9 = alloca i32, align 4
  %10 = alloca i32, align 4
  %11 = alloca ptr, align 8
  %12 = alloca ptr, align 8
  %13 = alloca i32, align 4
  store i32 %0, ptr %7, align 4, !tbaa !38
  store i32 %1, ptr %8, align 4, !tbaa !38
  store i32 %2, ptr %9, align 4, !tbaa !38
  store i32 %3, ptr %10, align 4, !tbaa !38
  store ptr %4, ptr %11, align 8, !tbaa !24
  call void @llvm.lifetime.start.p0(i64 8, ptr %12) #8
  %14 = load ptr, ptr %11, align 8, !tbaa !24
  %15 = call ptr @_PyArena_Malloc(ptr noundef %14, i64 noundef 80)
  store ptr %15, ptr %12, align 8, !tbaa !39
  %16 = load ptr, ptr %12, align 8, !tbaa !39
  %17 = icmp ne ptr %16, null
  br i1 %17, label %19, label %18

18:                                               ; preds = %5
  store ptr null, ptr %6, align 8
  store i32 1, ptr %13, align 4
  br label %35

19:                                               ; preds = %5
  %20 = load ptr, ptr %12, align 8, !tbaa !39
  %21 = getelementptr inbounds nuw %struct._stmt, ptr %20, i32 0, i32 0
  store i32 28, ptr %21, align 8, !tbaa !41
  %22 = load i32, ptr %7, align 4, !tbaa !38
  %23 = load ptr, ptr %12, align 8, !tbaa !39
  %24 = getelementptr inbounds nuw %struct._stmt, ptr %23, i32 0, i32 2
  store i32 %22, ptr %24, align 8, !tbaa !43
  %25 = load i32, ptr %8, align 4, !tbaa !38
  %26 = load ptr, ptr %12, align 8, !tbaa !39
  %27 = getelementptr inbounds nuw %struct._stmt, ptr %26, i32 0, i32 3
  store i32 %25, ptr %27, align 4, !tbaa !44
  %28 = load i32, ptr %9, align 4, !tbaa !38
  %29 = load ptr, ptr %12, align 8, !tbaa !39
  %30 = getelementptr inbounds nuw %struct._stmt, ptr %29, i32 0, i32 4
  store i32 %28, ptr %30, align 8, !tbaa !45
  %31 = load i32, ptr %10, align 4, !tbaa !38
  %32 = load ptr, ptr %12, align 8, !tbaa !39
  %33 = getelementptr inbounds nuw %struct._stmt, ptr %32, i32 0, i32 5
  store i32 %31, ptr %33, align 4, !tbaa !46
  %34 = load ptr, ptr %12, align 8, !tbaa !39
  store ptr %34, ptr %6, align 8
  store i32 1, ptr %13, align 4
  br label %35

35:                                               ; preds = %19, %18
  call void @llvm.lifetime.end.p0(i64 8, ptr %12) #8
  %36 = load ptr, ptr %6, align 8
  ret ptr %36
}